; Function Attrs: mustprogress uwtable
define internal fastcc noundef ptr @"_ZZN3tev11ImageViewerC1ERKNSt3__110shared_ptrINS_22BackgroundImagesLoaderEEEbbbENK4$_28clERKNS1_12basic_stringIcNS1_11char_traitsIcEENS1_9allocatorIcEEEEbNS1_8functionIFvvEEEiSD_"(ptr nocapture readonly %.0.val, ptr noundef nonnull align 8 dereferenceable(24) %0, i1 noundef zeroext %1, ptr noundef %2, i32 noundef %3, ptr noundef %4) unnamed_addr #7 align 2 personality ptr @__gxx_personality_v0 {
  %6 = alloca %"class.std::__1::function.50", align 16
  %7 = tail call noalias noundef nonnull dereferenceable(336) ptr @_Znwm(i64 noundef 336) #41
  %8 = load ptr, ptr %.0.val, align 8
  invoke void @_ZN7nanogui6ButtonC1EPNS_6WidgetERKNSt3__112basic_stringIcNS3_11char_traitsIcEENS3_9allocatorIcEEEEi(ptr noundef nonnull align 16 dereferenceable(328) %7, ptr noundef %8, ptr noundef nonnull align 8 dereferenceable(24) %0, i32 noundef %3)
          to label %9 unwind label %41

9:                                                ; preds = %5
  %10 = getelementptr inbounds i8, ptr %7, i64 208
  call void @llvm.lifetime.start.p0(i64 48, ptr nonnull %6)
  %11 = getelementptr inbounds i8, ptr %2, i64 32
  %12 = load ptr, ptr %11, align 16
  %13 = icmp eq ptr %12, null
  br i1 %13, label %14, label %16

14:                                               ; preds = %9
  %15 = getelementptr inbounds i8, ptr %6, i64 32
  store ptr null, ptr %15, align 16
  br label %_ZNSt3__18functionIFvvEEC2ERKS2_.exit.i.i

16:                                               ; preds = %9
  %17 = icmp eq ptr %12, %2
  br i1 %17, label %18, label %23

18:                                               ; preds = %16
  %19 = getelementptr inbounds i8, ptr %6, i64 32
  store ptr %6, ptr %19, align 16
  %20 = load ptr, ptr %2, align 8
  %21 = getelementptr inbounds i8, ptr %20, i64 24
  %22 = load ptr, ptr %21, align 8
  call void %22(ptr noundef nonnull align 8 dereferenceable(8) %2, ptr noundef nonnull %6)
  br label %_ZNSt3__18functionIFvvEEC2ERKS2_.exit.i.i

23:                                               ; preds = %16
  %24 = load ptr, ptr %12, align 8
  %25 = getelementptr inbounds i8, ptr %24, i64 16
  %26 = load ptr, ptr %25, align 8
  %27 = tail call noundef ptr %26(ptr noundef nonnull align 8 dereferenceable(8) %12)
  %28 = getelementptr inbounds i8, ptr %6, i64 32
  store ptr %27, ptr %28, align 16
  br label %_ZNSt3__18functionIFvvEEC2ERKS2_.exit.i.i

_ZNSt3__18functionIFvvEEC2ERKS2_.exit.i.i:        ; preds = %23, %18, %14
  call void @_ZNSt3__110__function12__value_funcIFvvEE4swapB8ne190000ERS3_(ptr noundef nonnull align 16 dereferenceable(40) %6, ptr noundef nonnull align 16 dereferenceable(40) %10) #39
  %29 = getelementptr inbounds i8, ptr %6, i64 32
  %30 = load ptr, ptr %29, align 16
  %31 = icmp eq ptr %30, %6
  br i1 %31, label %.sink.split.i.i.i.i, label %32

32:                                               ; preds = %_ZNSt3__18functionIFvvEEC2ERKS2_.exit.i.i
  %.not.i.i.i.i = icmp eq ptr %30, null
  br i1 %.not.i.i.i.i, label %_ZN7nanogui6Button12set_callbackERKNSt3__18functionIFvvEEE.exit, label %.sink.split.i.i.i.i

.sink.split.i.i.i.i:                              ; preds = %32, %_ZNSt3__18functionIFvvEEC2ERKS2_.exit.i.i
  %.sink5.i.i.i.i = phi ptr [ %6, %_ZNSt3__18functionIFvvEEC2ERKS2_.exit.i.i ], [ %30, %32 ]
  %.sink4.i.i.i.i = phi i64 [ 32, %_ZNSt3__18functionIFvvEEC2ERKS2_.exit.i.i ], [ 40, %32 ]
  %33 = load ptr, ptr %.sink5.i.i.i.i, align 8
  %34 = getelementptr inbounds i8, ptr %33, i64 %.sink4.i.i.i.i
  %35 = load ptr, ptr %34, align 8
  call void %35(ptr noundef nonnull align 8 dereferenceable(8) %.sink5.i.i.i.i) #39
  br label %_ZN7nanogui6Button12set_callbackERKNSt3__18functionIFvvEEE.exit

_ZN7nanogui6Button12set_callbackERKNSt3__18functionIFvvEEE.exit: ; preds = %32, %.sink.split.i.i.i.i
  call void @llvm.lifetime.end.p0(i64 48, ptr nonnull %6)
  %36 = getelementptr inbounds i8, ptr %7, i64 96
  %37 = call noundef nonnull align 8 dereferenceable(24) ptr @_ZNSt3__112basic_stringIcNS_11char_traitsIcEENS_9allocatorIcEEEaSERKS5_(ptr noundef nonnull align 8 dereferenceable(24) %36, ptr noundef nonnull align 8 dereferenceable(24) %4)
  %38 = getelementptr inbounds i8, ptr %7, i64 120
  store i32 15, ptr %38, align 8
  %39 = zext i1 %1 to i8
  %40 = getelementptr inbounds i8, ptr %7, i64 89
  store i8 %39, ptr %40, align 1
  ret ptr %7

41:                                               ; preds = %5
  %42 = landingpad { ptr, i32 }
          cleanup
  tail call void @_ZdlPv(ptr noundef nonnull %7) #40
  resume { ptr, i32 } %42
}